; Function Attrs: mustprogress uwtable
define internal fastcc void @_ZN8tinygltfL19ParseExtrasPropertyEPNS_5ValueERKN8nlohmann10basic_jsonISt3mapSt6vectorNSt7__cxx1112basic_stringIcSt11char_traitsIcESaIcEEEblmdSaNS2_14adl_serializerEEE(ptr noundef %0, ptr noundef nonnull align 8 dereferenceable(16) %1) unnamed_addr #3 {
  %3 = alloca %"class.nlohmann::detail::iter_impl", align 8
  %4 = alloca %"class.nlohmann::detail::iter_impl", align 8
  call void @_ZNK8nlohmann10basic_jsonISt3mapSt6vectorNSt7__cxx1112basic_stringIcSt11char_traitsIcESaIcEEEblmdSaNS_14adl_serializerEE4findIRA7_KcEENS_6detail9iter_implIKSA_EEOT_(ptr dead_on_unwind nonnull writable sret(%"class.nlohmann::detail::iter_impl") align 8 %3, ptr noundef nonnull align 8 dereferenceable(16) %1, ptr noundef nonnull align 1 dereferenceable(7) @.str.81)
  call void @llvm.experimental.noalias.scope.decl(metadata !683)
  call void @llvm.experimental.noalias.scope.decl(metadata !686)
  store ptr %1, ptr %4, align 8, !alias.scope !689
  %5 = getelementptr inbounds i8, ptr %4, i64 8
  %6 = getelementptr inbounds i8, ptr %4, i64 24
  call void @llvm.memset.p0.i64(ptr noundef nonnull align 8 dereferenceable(16) %5, i8 0, i64 16, i1 false), !alias.scope !689
  store i64 -9223372036854775808, ptr %6, align 8, !alias.scope !689
  %7 = load i8, ptr %1, align 8, !noalias !689
  switch i8 %7, label %18 [
    i8 1, label %8
    i8 2, label %12
  ]

8:                                                ; preds = %2
  %9 = getelementptr inbounds i8, ptr %1, i64 8
  %10 = load ptr, ptr %9, align 8, !noalias !689
  %11 = getelementptr inbounds i8, ptr %10, i64 8
  store ptr %11, ptr %5, align 8, !alias.scope !689
  br label %_ZNK8nlohmann10basic_jsonISt3mapSt6vectorNSt7__cxx1112basic_stringIcSt11char_traitsIcESaIcEEEblmdSaNS_14adl_serializerEE3endEv.exit

12:                                               ; preds = %2
  %13 = getelementptr inbounds i8, ptr %1, i64 8
  %14 = load ptr, ptr %13, align 8, !noalias !689
  %15 = getelementptr inbounds i8, ptr %14, i64 8
  %16 = load ptr, ptr %15, align 8, !noalias !689
  %17 = getelementptr inbounds i8, ptr %4, i64 16
  store ptr %16, ptr %17, align 8, !alias.scope !689
  br label %_ZNK8nlohmann10basic_jsonISt3mapSt6vectorNSt7__cxx1112basic_stringIcSt11char_traitsIcESaIcEEEblmdSaNS_14adl_serializerEE3endEv.exit

18:                                               ; preds = %2
  store i64 1, ptr %6, align 8, !alias.scope !689
  br label %_ZNK8nlohmann10basic_jsonISt3mapSt6vectorNSt7__cxx1112basic_stringIcSt11char_traitsIcESaIcEEEblmdSaNS_14adl_serializerEE3endEv.exit

_ZNK8nlohmann10basic_jsonISt3mapSt6vectorNSt7__cxx1112basic_stringIcSt11char_traitsIcESaIcEEEblmdSaNS_14adl_serializerEE3endEv.exit: ; preds = %8, %12, %18
  %19 = call noundef zeroext i1 @_ZNK8nlohmann6detail9iter_implIKNS_10basic_jsonISt3mapSt6vectorNSt7__cxx1112basic_stringIcSt11char_traitsIcESaIcEEEblmdSaNS_14adl_serializerEEEEeqERKSE_(ptr noundef nonnull align 8 dereferenceable(32) %3, ptr noundef nonnull align 8 dereferenceable(32) %4)
  br i1 %19, label %23, label %20

20:                                               ; preds = %_ZNK8nlohmann10basic_jsonISt3mapSt6vectorNSt7__cxx1112basic_stringIcSt11char_traitsIcESaIcEEEblmdSaNS_14adl_serializerEE3endEv.exit
  %21 = call noundef nonnull align 8 dereferenceable(16) ptr @_ZNK8nlohmann6detail9iter_implIKNS_10basic_jsonISt3mapSt6vectorNSt7__cxx1112basic_stringIcSt11char_traitsIcESaIcEEEblmdSaNS_14adl_serializerEEEEdeEv(ptr noundef nonnull align 8 dereferenceable(32) %3)
  %22 = call fastcc noundef zeroext i1 @_ZN8tinygltfL16ParseJsonAsValueEPNS_5ValueERKN8nlohmann10basic_jsonISt3mapSt6vectorNSt7__cxx1112basic_stringIcSt11char_traitsIcESaIcEEEblmdSaNS2_14adl_serializerEEE(ptr noundef %0, ptr noundef nonnull align 8 dereferenceable(16) %21)
  br label %23

23:                                               ; preds = %_ZNK8nlohmann10basic_jsonISt3mapSt6vectorNSt7__cxx1112basic_stringIcSt11char_traitsIcESaIcEEEblmdSaNS_14adl_serializerEE3endEv.exit, %20
  ret void
}